target datalayout = "e-m:e-p270:32:32-p271:32:32-p272:64:64-i64:64-i128:128-f80:128-n8:16:32:64-S128"
target triple = "x86_64-pc-linux-gnu"

%struct._php_stream = type { ptr, ptr, %struct._php_stream_filter_chain, %struct._php_stream_filter_chain, ptr, ptr, %struct._zval_struct, i16, [16 x i8], i32, ptr, ptr, ptr, ptr, i64, ptr, i64, i64, i64, i64, ptr }
%struct._php_stream_filter_chain = type { ptr, ptr, ptr }
%struct._zval_struct = type { %union._zend_value, %union.anon, %union.anon.2 }
%union._zend_value = type { i64 }
%union.anon = type { i32 }
%union.anon.2 = type { i32 }
%struct.php_stream_memory_data = type { ptr, i64, i32 }
%struct.php_stream_temp_data = type { ptr, i64, i32, %struct._zval_struct, ptr }

@.str.3 = private unnamed_addr constant [3 x i8] c"rb\00", align 1
@.str.4 = private unnamed_addr constant [4 x i8] c"a+b\00", align 1
@.str.5 = private unnamed_addr constant [4 x i8] c"w+b\00", align 1
@zend_empty_string = external global ptr, align 8

; Function Attrs: nounwind uwtable
define ptr @_php_stream_memory_create(i32 noundef %0) #0 {
  %2 = alloca i32, align 4
  %3 = alloca ptr, align 8
  %4 = alloca ptr, align 8
  store i32 %0, ptr %2, align 4
  %5 = call noalias ptr @_emalloc_24()
  store ptr %5, ptr %3, align 8
  %6 = load ptr, ptr @zend_empty_string, align 8
  %7 = load ptr, ptr %3, align 8
  %8 = getelementptr inbounds %struct.php_stream_memory_data, ptr %7, i32 0, i32 0
  store ptr %6, ptr %8, align 8
  %9 = load ptr, ptr %3, align 8
  %10 = getelementptr inbounds %struct.php_stream_memory_data, ptr %9, i32 0, i32 1
  store i64 0, ptr %10, align 8
  %11 = load i32, ptr %2, align 4
  %12 = load ptr, ptr %3, align 8
  %13 = getelementptr inbounds %struct.php_stream_memory_data, ptr %12, i32 0, i32 2
  store i32 %11, ptr %13, align 8
  %14 = load ptr, ptr %3, align 8
  %15 = load i32, ptr %2, align 4
  %16 = call ptr @_php_stream_mode_to_str(i32 noundef %15)
  %17 = call ptr @_php_stream_alloc(ptr noundef @php_stream_memory_ops, ptr noundef %14, ptr noundef null, ptr noundef %16)
  store ptr %17, ptr %4, align 8
  %18 = load ptr, ptr %4, align 8
  %19 = getelementptr inbounds %struct._php_stream, ptr %18, i32 0, i32 9
  %20 = load i32, ptr %19, align 4
  %21 = or i32 %20, 2
  store i32 %21, ptr %19, align 4
  %22 = load ptr, ptr %4, align 8
  ret ptr %22
}

; Function Attrs: nounwind uwtable
define ptr @_php_stream_mode_to_str(i32 noundef %0) #0 {
  %2 = alloca ptr, align 8
  %3 = alloca i32, align 4
  store i32 %0, ptr %3, align 4
  %4 = load i32, ptr %3, align 4
  %5 = icmp eq i32 %4, 1
  br i1 %5, label %6, label %7

6:                                                ; preds = %1
  store ptr @.str.3, ptr %2, align 8
  br label %13

7:                                                ; preds = %1
  %8 = load i32, ptr %3, align 4
  %9 = icmp eq i32 %8, 4
  br i1 %9, label %10, label %11

10:                                               ; preds = %7
  store ptr @.str.4, ptr %2, align 8
  br label %13

11:                                               ; preds = %7
  br label %12

12:                                               ; preds = %11
  store ptr @.str.5, ptr %2, align 8
  br label %13

13:                                               ; preds = %12, %10, %6
  %14 = load ptr, ptr %2, align 8
  ret ptr %14
}

; Function Attrs: nounwind uwtable
define ptr @_php_stream_temp_create_ex(i32 noundef %0, i64 noundef %1, ptr noundef %2) #0 {
  %4 = alloca i32, align 4
  %5 = alloca i64, align 8
  %6 = alloca ptr, align 8
  %7 = alloca ptr, align 8
  %8 = alloca ptr, align 8
  store i32 %0, ptr %4, align 4
  store i64 %1, ptr %5, align 8
  store ptr %2, ptr %6, align 8
  %9 = call noalias ptr @_ecalloc(i64 noundef 1, i64 noundef 48) #15
  store ptr %9, ptr %7, align 8
  %10 = load i64, ptr %5, align 8
  %11 = load ptr, ptr %7, align 8
  %12 = getelementptr inbounds %struct.php_stream_temp_data, ptr %11, i32 0, i32 1
  store i64 %10, ptr %12, align 8
  %13 = load i32, ptr %4, align 4
  %14 = load ptr, ptr %7, align 8
  %15 = getelementptr inbounds %struct.php_stream_temp_data, ptr %14, i32 0, i32 2
  store i32 %13, ptr %15, align 8
  br label %16

16:                                               ; preds = %3
  %17 = load ptr, ptr %7, align 8
  %18 = getelementptr inbounds %struct.php_stream_temp_data, ptr %17, i32 0, i32 3
  %19 = getelementptr inbounds %struct._zval_struct, ptr %18, i32 0, i32 1
  store i32 0, ptr %19, align 8
  br label %20

20:                                               ; preds = %16
  %21 = load ptr, ptr %6, align 8
  %22 = icmp ne ptr %21, null
  br i1 %22, label %23, label %28

23:                                               ; preds = %20
  %24 = load ptr, ptr %6, align 8
  %25 = call noalias ptr @_estrdup(ptr noundef %24)
  %26 = load ptr, ptr %7, align 8
  %27 = getelementptr inbounds %struct.php_stream_temp_data, ptr %26, i32 0, i32 4
  store ptr %25, ptr %27, align 8
  br label %28

28:                                               ; preds = %23, %20
  %29 = load ptr, ptr %7, align 8
  %30 = load i32, ptr %4, align 4
  %31 = call ptr @_php_stream_mode_to_str(i32 noundef %30)
  %32 = call ptr @_php_stream_alloc(ptr noundef @php_stream_temp_ops, ptr noundef %29, ptr noundef null, ptr noundef %31)
  store ptr %32, ptr %8, align 8
  %33 = load ptr, ptr %8, align 8
  %34 = getelementptr inbounds %struct._php_stream, ptr %33, i32 0, i32 9
  %35 = load i32, ptr %34, align 4
  %36 = or i32 %35, 2
  store i32 %36, ptr %34, align 4
  %37 = load i32, ptr %4, align 4
  %38 = call ptr @_php_stream_memory_create(i32 noundef %37)
  %39 = load ptr, ptr %7, align 8
  %40 = getelementptr inbounds %struct.php_stream_temp_data, ptr %39, i32 0, i32 0
  store ptr %38, ptr %40, align 8
  %41 = load ptr, ptr %8, align 8
  %42 = load ptr, ptr %7, align 8
  %43 = getelementptr inbounds %struct.php_stream_temp_data, ptr %42, i32 0, i32 0
  %44 = load ptr, ptr %43, align 8
  %45 = call ptr @php_stream_encloses(ptr noundef %41, ptr noundef %44)
  %46 = load ptr, ptr %8, align 8
  ret ptr %46
}