; Function Attrs: nounwind uwtable
define ptr @_php_stream_temp_create_ex(i32 noundef %0, i64 noundef %1, ptr noundef %2) local_unnamed_addr #0 {
  %4 = tail call noalias dereferenceable_or_null(48) ptr @_ecalloc(i64 noundef 1, i64 noundef 48) #22
  %5 = getelementptr inbounds i8, ptr %4, i64 8
  store i64 %1, ptr %5, align 8
  %6 = getelementptr inbounds i8, ptr %4, i64 16
  store i32 %0, ptr %6, align 8
  %7 = getelementptr inbounds i8, ptr %4, i64 32
  store i32 0, ptr %7, align 8
  %.not = icmp eq ptr %2, null
  br i1 %.not, label %11, label %8

8:                                                ; preds = %3
  %9 = tail call noalias ptr @_estrdup(ptr noundef nonnull %2) #20
  %10 = getelementptr inbounds i8, ptr %4, i64 40
  store ptr %9, ptr %10, align 8
  br label %11

11:                                               ; preds = %8, %3
  %switch.selectcmp.i = icmp eq i32 %0, 4
  %switch.select.i = select i1 %switch.selectcmp.i, ptr @.str.4, ptr @.str.5
  %switch.selectcmp3.i = icmp eq i32 %0, 1
  %switch.select4.i = select i1 %switch.selectcmp3.i, ptr @.str.3, ptr %switch.select.i
  %12 = tail call ptr @_php_stream_alloc(ptr noundef nonnull @php_stream_temp_ops, ptr noundef nonnull %4, ptr noundef null, ptr noundef nonnull %switch.select4.i) #20
  %13 = getelementptr inbounds i8, ptr %12, i64 116
  %14 = load i32, ptr %13, align 4
  %15 = or i32 %14, 2
  store i32 %15, ptr %13, align 4
  %16 = tail call noalias ptr @_emalloc_24() #20
  %17 = load ptr, ptr @zend_empty_string, align 8
  store ptr %17, ptr %16, align 8
  %18 = getelementptr inbounds i8, ptr %16, i64 8
  store i64 0, ptr %18, align 8
  %19 = getelementptr inbounds i8, ptr %16, i64 16
  store i32 %0, ptr %19, align 8
  %20 = tail call ptr @_php_stream_alloc(ptr noundef nonnull @php_stream_memory_ops, ptr noundef nonnull %16, ptr noundef null, ptr noundef nonnull %switch.select4.i) #20
  %21 = getelementptr inbounds i8, ptr %20, i64 116
  %22 = load i32, ptr %21, align 4
  %23 = or i32 %22, 2
  store i32 %23, ptr %21, align 4
  store ptr %20, ptr %4, align 8
  %24 = tail call ptr @php_stream_encloses(ptr noundef %12, ptr noundef %20) #20
  ret ptr %12
}